target datalayout = "e-m:e-p270:32:32-p271:32:32-p272:64:64-i64:64-i128:128-f80:128-n8:16:32:64-S128"
target triple = "x86_64-pc-linux-gnu"

%struct.lexbor_array_obj_t = type { ptr, i64, i64, i64 }

; Function Attrs: nounwind uwtable
define hidden i32 @lexbor_array_obj_init(ptr noundef %0, i64 noundef %1, i64 noundef %2) #0 {
  %4 = alloca i32, align 4
  %5 = alloca ptr, align 8
  %6 = alloca i64, align 8
  %7 = alloca i64, align 8
  store ptr %0, ptr %5, align 8
  store i64 %1, ptr %6, align 8
  store i64 %2, ptr %7, align 8
  %8 = load ptr, ptr %5, align 8
  %9 = icmp eq ptr %8, null
  br i1 %9, label %10, label %11

10:                                               ; preds = %3
  store i32 3, ptr %4, align 4
  br label %42

11:                                               ; preds = %3
  %12 = load i64, ptr %6, align 8
  %13 = icmp eq i64 %12, 0
  br i1 %13, label %17, label %14

14:                                               ; preds = %11
  %15 = load i64, ptr %7, align 8
  %16 = icmp eq i64 %15, 0
  br i1 %16, label %17, label %18

17:                                               ; preds = %14, %11
  store i32 7, ptr %4, align 4
  br label %42

18:                                               ; preds = %14
  %19 = load ptr, ptr %5, align 8
  %20 = getelementptr inbounds %struct.lexbor_array_obj_t, ptr %19, i32 0, i32 2
  store i64 0, ptr %20, align 8
  %21 = load i64, ptr %6, align 8
  %22 = load ptr, ptr %5, align 8
  %23 = getelementptr inbounds %struct.lexbor_array_obj_t, ptr %22, i32 0, i32 1
  store i64 %21, ptr %23, align 8
  %24 = load i64, ptr %7, align 8
  %25 = load ptr, ptr %5, align 8
  %26 = getelementptr inbounds %struct.lexbor_array_obj_t, ptr %25, i32 0, i32 3
  store i64 %24, ptr %26, align 8
  %27 = load ptr, ptr %5, align 8
  %28 = getelementptr inbounds %struct.lexbor_array_obj_t, ptr %27, i32 0, i32 1
  %29 = load i64, ptr %28, align 8
  %30 = load i64, ptr %7, align 8
  %31 = mul i64 %29, %30
  %32 = mul i64 8, %31
  %33 = call ptr @lexbor_malloc(i64 noundef %32)
  %34 = load ptr, ptr %5, align 8
  %35 = getelementptr inbounds %struct.lexbor_array_obj_t, ptr %34, i32 0, i32 0
  store ptr %33, ptr %35, align 8
  %36 = load ptr, ptr %5, align 8
  %37 = getelementptr inbounds %struct.lexbor_array_obj_t, ptr %36, i32 0, i32 0
  %38 = load ptr, ptr %37, align 8
  %39 = icmp eq ptr %38, null
  br i1 %39, label %40, label %41

40:                                               ; preds = %18
  store i32 2, ptr %4, align 4
  br label %42

41:                                               ; preds = %18
  store i32 0, ptr %4, align 4
  br label %42

42:                                               ; preds = %41, %40, %17, %10
  %43 = load i32, ptr %4, align 4
  ret i32 %43
}