; Function Attrs: nounwind uwtable
define hidden i32 @lexbor_array_obj_init(ptr noundef writeonly %0, i64 noundef %1, i64 noundef %2) local_unnamed_addr #0 {
  %4 = icmp eq ptr %0, null
  br i1 %4, label %16, label %5

5:                                                ; preds = %3
  %6 = icmp eq i64 %1, 0
  %7 = icmp eq i64 %2, 0
  %or.cond = or i1 %6, %7
  br i1 %or.cond, label %16, label %8

8:                                                ; preds = %5
  %9 = getelementptr inbounds i8, ptr %0, i64 16
  store i64 0, ptr %9, align 8
  %10 = getelementptr inbounds i8, ptr %0, i64 8
  store i64 %1, ptr %10, align 8
  %11 = getelementptr inbounds i8, ptr %0, i64 24
  store i64 %2, ptr %11, align 8
  %12 = shl i64 %1, 3
  %13 = mul i64 %12, %2
  %14 = tail call ptr @lexbor_malloc(i64 noundef %13) #8
  store ptr %14, ptr %0, align 8
  %15 = icmp eq ptr %14, null
  %. = select i1 %15, i32 2, i32 0
  br label %16

16:                                               ; preds = %8, %5, %3
  %.0 = phi i32 [ 3, %3 ], [ 7, %5 ], [ %., %8 ]
  ret i32 %.0
}